target datalayout = "e-m:e-p270:32:32-p271:32:32-p272:64:64-i64:64-i128:128-f80:128-n8:16:32:64-S128"
target triple = "x86_64-pc-linux-gnu"

%"class.std::__cxx11::basic_string" = type { %"struct.std::__cxx11::basic_string<char>::_Alloc_hider", i64, %union.anon }
%"struct.std::__cxx11::basic_string<char>::_Alloc_hider" = type { ptr }
%union.anon = type { i64, [8 x i8] }
%"class.Imf_3_4::RgbaInputFile" = type { ptr, ptr, ptr, ptr, %"class.std::__cxx11::basic_string" }

; Function Attrs: mustprogress uwtable
define dso_local void @_Z6envmapv() #6 personality ptr @__gxx_personality_v0 {
  %1 = alloca [1 x i8], align 1
  %2 = alloca %"class.Imf_3_4::RgbaInputFile", align 8
  %3 = alloca ptr, align 8
  %4 = alloca i32, align 4
  %5 = alloca i32, align 4
  call void @llvm.lifetime.start.p0(i64 1, ptr %1) #3
  call void @llvm.memset.p0.i64(ptr align 1 %1, i8 0, i64 1, i1 false)
  call void @llvm.lifetime.start.p0(i64 64, ptr %2) #3
  %6 = getelementptr inbounds [1 x i8], ptr %1, i64 0, i64 0
  %7 = call noundef i32 @_ZN7Imf_3_417globalThreadCountEv()
  call void @_ZN7Imf_3_413RgbaInputFileC1EPKci(ptr noundef nonnull align 8 dereferenceable(64) %2, ptr noundef %6, i32 noundef %7)
  %8 = invoke noundef nonnull align 8 dereferenceable(49) ptr @_ZNK7Imf_3_413RgbaInputFile6headerEv(ptr noundef nonnull align 8 dereferenceable(64) %2)
          to label %9 unwind label %18

9:                                                ; preds = %0
  %10 = invoke noundef zeroext i1 @_ZN7Imf_3_49hasEnvmapERKNS_6HeaderE(ptr noundef nonnull align 8 dereferenceable(49) %8)
          to label %11 unwind label %18

11:                                               ; preds = %9
  br i1 %10, label %12, label %26

12:                                               ; preds = %11
  call void @llvm.lifetime.start.p0(i64 4, ptr %5) #3
  %13 = invoke noundef nonnull align 8 dereferenceable(49) ptr @_ZNK7Imf_3_413RgbaInputFile6headerEv(ptr noundef nonnull align 8 dereferenceable(64) %2)
          to label %14 unwind label %22

14:                                               ; preds = %12
  %15 = invoke noundef nonnull align 4 dereferenceable(4) ptr @_ZN7Imf_3_46envmapERKNS_6HeaderE(ptr noundef nonnull align 8 dereferenceable(49) %13)
          to label %16 unwind label %22

16:                                               ; preds = %14
  %17 = load i32, ptr %15, align 4, !tbaa !231
  store i32 %17, ptr %5, align 4, !tbaa !231
  call void @llvm.lifetime.end.p0(i64 4, ptr %5) #3
  br label %26

18:                                               ; preds = %9, %0
  %19 = landingpad { ptr, i32 }
          cleanup
  %20 = extractvalue { ptr, i32 } %19, 0
  store ptr %20, ptr %3, align 8
  %21 = extractvalue { ptr, i32 } %19, 1
  store i32 %21, ptr %4, align 4
  br label %27

22:                                               ; preds = %14, %12
  %23 = landingpad { ptr, i32 }
          cleanup
  %24 = extractvalue { ptr, i32 } %23, 0
  store ptr %24, ptr %3, align 8
  %25 = extractvalue { ptr, i32 } %23, 1
  store i32 %25, ptr %4, align 4
  call void @llvm.lifetime.end.p0(i64 4, ptr %5) #3
  br label %27

26:                                               ; preds = %16, %11
  call void @_ZN7Imf_3_413RgbaInputFileD1Ev(ptr noundef nonnull align 8 dereferenceable(64) %2) #3
  call void @llvm.lifetime.end.p0(i64 64, ptr %2) #3
  call void @llvm.lifetime.end.p0(i64 1, ptr %1) #3
  ret void

27:                                               ; preds = %22, %18
  call void @_ZN7Imf_3_413RgbaInputFileD1Ev(ptr noundef nonnull align 8 dereferenceable(64) %2) #3
  call void @llvm.lifetime.end.p0(i64 64, ptr %2) #3
  call void @llvm.lifetime.end.p0(i64 1, ptr %1) #3
  br label %28

28:                                               ; preds = %27
  %29 = load ptr, ptr %3, align 8
  %30 = load i32, ptr %4, align 4
  %31 = insertvalue { ptr, i32 } poison, ptr %29, 0
  %32 = insertvalue { ptr, i32 } %31, i32 %30, 1
  resume { ptr, i32 } %32
}