; Function Attrs: mustprogress uwtable
define dso_local void @_Z6envmapv() local_unnamed_addr #8 personality ptr @__gxx_personality_v0 {
  %1 = alloca [1 x i8], align 1
  %2 = alloca %"class.Imf_3_4::RgbaInputFile", align 8
  call void @llvm.lifetime.start.p0(i64 1, ptr nonnull %1) #36
  store i8 0, ptr %1, align 1
  call void @llvm.lifetime.start.p0(i64 64, ptr nonnull %2) #36
  %3 = tail call noundef i32 @_ZN7Imf_3_417globalThreadCountEv()
  call void @_ZN7Imf_3_413RgbaInputFileC1EPKci(ptr noundef nonnull align 8 dereferenceable(64) %2, ptr noundef nonnull %1, i32 noundef %3)
  %4 = invoke noundef nonnull align 8 dereferenceable(49) ptr @_ZNK7Imf_3_413RgbaInputFile6headerEv(ptr noundef nonnull align 8 dereferenceable(64) %2)
          to label %5 unwind label %12

5:                                                ; preds = %0
  %6 = invoke noundef zeroext i1 @_ZN7Imf_3_49hasEnvmapERKNS_6HeaderE(ptr noundef nonnull align 8 dereferenceable(49) %4)
          to label %7 unwind label %12

7:                                                ; preds = %5
  br i1 %6, label %8, label %16

8:                                                ; preds = %7
  %9 = invoke noundef nonnull align 8 dereferenceable(49) ptr @_ZNK7Imf_3_413RgbaInputFile6headerEv(ptr noundef nonnull align 8 dereferenceable(64) %2)
          to label %10 unwind label %14

10:                                               ; preds = %8
  %11 = invoke noundef nonnull align 4 dereferenceable(4) ptr @_ZN7Imf_3_46envmapERKNS_6HeaderE(ptr noundef nonnull align 8 dereferenceable(49) %9)
          to label %16 unwind label %14

12:                                               ; preds = %5, %0
  %13 = landingpad { ptr, i32 }
          cleanup
  br label %17

14:                                               ; preds = %10, %8
  %15 = landingpad { ptr, i32 }
          cleanup
  br label %17

16:                                               ; preds = %10, %7
  call void @_ZN7Imf_3_413RgbaInputFileD1Ev(ptr noundef nonnull align 8 dereferenceable(64) %2) #36
  call void @llvm.lifetime.end.p0(i64 64, ptr nonnull %2) #36
  call void @llvm.lifetime.end.p0(i64 1, ptr nonnull %1) #36
  ret void

17:                                               ; preds = %14, %12
  %.pn = phi { ptr, i32 } [ %15, %14 ], [ %13, %12 ]
  call void @_ZN7Imf_3_413RgbaInputFileD1Ev(ptr noundef nonnull align 8 dereferenceable(64) %2) #36
  call void @llvm.lifetime.end.p0(i64 64, ptr nonnull %2) #36
  call void @llvm.lifetime.end.p0(i64 1, ptr nonnull %1) #36
  resume { ptr, i32 } %.pn
}